target datalayout = "e-m:e-p270:32:32-p271:32:32-p272:64:64-i64:64-i128:128-f80:128-n8:16:32:64-S128"
target triple = "x86_64-pc-linux-gnu"

%struct.quic_sstream_st = type { %struct.ring_buf, %struct.ossl_list_st_uint_set, %struct.ossl_list_st_uint_set, i8 }
%struct.ring_buf = type { ptr, i64, i64, i64 }
%struct.ossl_list_st_uint_set = type { ptr, ptr, i64 }

; Function Attrs: nounwind uwtable
define void @ossl_quic_sstream_set_cleanse(ptr noundef %0, i32 noundef %1) #0 {
  %3 = alloca ptr, align 8
  %4 = alloca i32, align 4
  store ptr %0, ptr %3, align 8, !tbaa !7
  store i32 %1, ptr %4, align 4, !tbaa !17
  %5 = load i32, ptr %4, align 4, !tbaa !17
  %6 = load ptr, ptr %3, align 8, !tbaa !7
  %7 = getelementptr inbounds nuw %struct.quic_sstream_st, ptr %6, i32 0, i32 3
  %8 = trunc i32 %5 to i8
  %9 = load i8, ptr %7, align 8
  %10 = and i8 %8, 1
  %11 = shl i8 %10, 3
  %12 = and i8 %9, -9
  %13 = or i8 %12, %11
  store i8 %13, ptr %7, align 8
  ret void
}