; Function Attrs: mustprogress nofree norecurse nosync nounwind willreturn memory(argmem: readwrite) uwtable
define void @ossl_quic_sstream_set_cleanse(ptr noundef captures(none) %0, i32 noundef %1) local_unnamed_addr #6 {
  %3 = getelementptr inbounds nuw i8, ptr %0, i64 80
  %4 = trunc i32 %1 to i8
  %5 = load i8, ptr %3, align 8
  %6 = shl i8 %4, 3
  %7 = and i8 %6, 8
  %8 = and i8 %5, -9
  %9 = or disjoint i8 %8, %7
  store i8 %9, ptr %3, align 8
  ret void
}